target datalayout = "e-m:e-p270:32:32-p271:32:32-p272:64:64-i64:64-i128:128-f80:128-n8:16:32:64-S128"
target triple = "x86_64-pc-linux-gnu"

%struct.ARKodeMemRec = type { ptr, double, ptr, i32, i32, double, double, ptr, i32, double, ptr, i32, i32, ptr, ptr, i32, ptr, ptr, i32, ptr, ptr, ptr, ptr, ptr, ptr, ptr, ptr, ptr, ptr, ptr, ptr, ptr, ptr, ptr, i32, ptr, ptr, i32, ptr, i32, ptr, ptr, ptr, ptr, ptr, ptr, ptr, ptr, ptr, ptr, ptr, ptr, ptr, ptr, ptr, ptr, ptr, ptr, ptr, ptr, ptr, ptr, ptr, ptr, ptr, ptr, i32, ptr, ptr, ptr, ptr, ptr, ptr, ptr, i32, ptr, ptr, ptr, i32, ptr, ptr, ptr, ptr, ptr, ptr, ptr, i32, i32, i32, i32, double, double, double, double, double, double, double, double, double, double, i32, ptr, i64, i32, i32, i32, i32, i64, i64, i32, i64, i64, i64, i64, i64, i64, i64, double, double, double, double, double, i32, double, double, i32, i32, i32, i32, i32, i32, i32, i32, ptr, i32, ptr, ptr, ptr, ptr, i32, i32, i32 }
%struct.ARKodeRootMemRec = type { ptr, i32, ptr, ptr, double, double, double, ptr, ptr, ptr, double, double, i32, i32, i64, ptr, i32, ptr }

@.str = private unnamed_addr constant [120 x i8] c"generated/home/dtcxzyw/WorkSpace/Projects/compilers/llvm-opt-benchmark/bench/sundials/sundials/src/arkode/arkode_root.c\00", align 1
@.str.1 = private unnamed_addr constant [27 x i8] c"arkode_mem = NULL illegal.\00", align 1
@__func__.arkRootCheck3 = private unnamed_addr constant [14 x i8] c"arkRootCheck3\00", align 1

; Function Attrs: nounwind uwtable
define i32 @arkRootCheck3(ptr noundef %0) #0 {
  %2 = alloca i32, align 4
  %3 = alloca ptr, align 8
  %4 = alloca i32, align 4
  %5 = alloca i32, align 4
  %6 = alloca i32, align 4
  %7 = alloca ptr, align 8
  %8 = alloca ptr, align 8
  %9 = alloca i32, align 4
  store ptr %0, ptr %3, align 8, !tbaa !3
  call void @llvm.lifetime.start.p0(i64 4, ptr %4) #6
  call void @llvm.lifetime.start.p0(i64 4, ptr %5) #6
  call void @llvm.lifetime.start.p0(i64 4, ptr %6) #6
  call void @llvm.lifetime.start.p0(i64 8, ptr %7) #6
  call void @llvm.lifetime.start.p0(i64 8, ptr %8) #6
  %10 = load ptr, ptr %3, align 8, !tbaa !3
  %11 = icmp eq ptr %10, null
  br i1 %11, label %12, label %13

12:                                               ; preds = %1
  call void (ptr, i32, i32, ptr, ptr, ptr, ...) @arkProcessError(ptr noundef null, i32 noundef -21, i32 noundef 623, ptr noundef @__func__.arkRootCheck3, ptr noundef @.str, ptr noundef @.str.1)
  store i32 -21, ptr %2, align 4
  store i32 1, ptr %9, align 4
  br label %203

13:                                               ; preds = %1
  %14 = load ptr, ptr %3, align 8, !tbaa !3
  store ptr %14, ptr %7, align 8, !tbaa !9
  %15 = load ptr, ptr %7, align 8, !tbaa !9
  %16 = getelementptr inbounds nuw %struct.ARKodeMemRec, ptr %15, i32 0, i32 133
  %17 = load ptr, ptr %16, align 8, !tbaa !22
  store ptr %17, ptr %8, align 8, !tbaa !50
  %18 = load ptr, ptr %8, align 8, !tbaa !50
  %19 = getelementptr inbounds nuw %struct.ARKodeRootMemRec, ptr %18, i32 0, i32 12
  %20 = load i32, ptr %19, align 8, !tbaa !43
  %21 = icmp eq i32 %20, 2
  br i1 %21, label %22, label %34

22:                                               ; preds = %13
  %23 = load ptr, ptr %7, align 8, !tbaa !9
  %24 = getelementptr inbounds nuw %struct.ARKodeMemRec, ptr %23, i32 0, i32 98
  %25 = load double, ptr %24, align 8, !tbaa !51
  %26 = load ptr, ptr %8, align 8, !tbaa !50
  %27 = getelementptr inbounds nuw %struct.ARKodeRootMemRec, ptr %26, i32 0, i32 5
  store double %25, ptr %27, align 8, !tbaa !45
  %28 = load ptr, ptr %7, align 8, !tbaa !9
  %29 = getelementptr inbounds nuw %struct.ARKodeMemRec, ptr %28, i32 0, i32 76
  %30 = load ptr, ptr %29, align 8, !tbaa !21
  %31 = load ptr, ptr %7, align 8, !tbaa !9
  %32 = getelementptr inbounds nuw %struct.ARKodeMemRec, ptr %31, i32 0, i32 75
  %33 = load ptr, ptr %32, align 8, !tbaa !57
  call void @N_VScale(double noundef 1.000000e+00, ptr noundef %30, ptr noundef %33)
  br label %34

34:                                               ; preds = %22, %13
  %35 = load ptr, ptr %8, align 8, !tbaa !50
  %36 = getelementptr inbounds nuw %struct.ARKodeRootMemRec, ptr %35, i32 0, i32 12
  %37 = load i32, ptr %36, align 8, !tbaa !43
  %38 = icmp eq i32 %37, 1
  br i1 %38, label %39, label %79

39:                                               ; preds = %34
  %40 = load ptr, ptr %8, align 8, !tbaa !50
  %41 = getelementptr inbounds nuw %struct.ARKodeRootMemRec, ptr %40, i32 0, i32 10
  %42 = load double, ptr %41, align 8, !tbaa !48
  %43 = load ptr, ptr %7, align 8, !tbaa !9
  %44 = getelementptr inbounds nuw %struct.ARKodeMemRec, ptr %43, i32 0, i32 98
  %45 = load double, ptr %44, align 8, !tbaa !51
  %46 = fsub double %42, %45
  %47 = load ptr, ptr %7, align 8, !tbaa !9
  %48 = getelementptr inbounds nuw %struct.ARKodeMemRec, ptr %47, i32 0, i32 92
  %49 = load double, ptr %48, align 8, !tbaa !52
  %50 = fmul double %46, %49
  %51 = fcmp oge double %50, 0.000000e+00
  br i1 %51, label %52, label %64

52:                                               ; preds = %39
  %53 = load ptr, ptr %7, align 8, !tbaa !9
  %54 = getelementptr inbounds nuw %struct.ARKodeMemRec, ptr %53, i32 0, i32 98
  %55 = load double, ptr %54, align 8, !tbaa !51
  %56 = load ptr, ptr %8, align 8, !tbaa !50
  %57 = getelementptr inbounds nuw %struct.ARKodeRootMemRec, ptr %56, i32 0, i32 5
  store double %55, ptr %57, align 8, !tbaa !45
  %58 = load ptr, ptr %7, align 8, !tbaa !9
  %59 = getelementptr inbounds nuw %struct.ARKodeMemRec, ptr %58, i32 0, i32 76
  %60 = load ptr, ptr %59, align 8, !tbaa !21
  %61 = load ptr, ptr %7, align 8, !tbaa !9
  %62 = getelementptr inbounds nuw %struct.ARKodeMemRec, ptr %61, i32 0, i32 75
  %63 = load ptr, ptr %62, align 8, !tbaa !57
  call void @N_VScale(double noundef 1.000000e+00, ptr noundef %60, ptr noundef %63)
  br label %78

64:                                               ; preds = %39
  %65 = load ptr, ptr %8, align 8, !tbaa !50
  %66 = getelementptr inbounds nuw %struct.ARKodeRootMemRec, ptr %65, i32 0, i32 10
  %67 = load double, ptr %66, align 8, !tbaa !48
  %68 = load ptr, ptr %8, align 8, !tbaa !50
  %69 = getelementptr inbounds nuw %struct.ARKodeRootMemRec, ptr %68, i32 0, i32 5
  store double %67, ptr %69, align 8, !tbaa !45
  %70 = load ptr, ptr %7, align 8, !tbaa !9
  %71 = load ptr, ptr %8, align 8, !tbaa !50
  %72 = getelementptr inbounds nuw %struct.ARKodeRootMemRec, ptr %71, i32 0, i32 5
  %73 = load double, ptr %72, align 8, !tbaa !45
  %74 = load ptr, ptr %7, align 8, !tbaa !9
  %75 = getelementptr inbounds nuw %struct.ARKodeMemRec, ptr %74, i32 0, i32 75
  %76 = load ptr, ptr %75, align 8, !tbaa !57
  %77 = call i32 @ARKodeGetDky(ptr noundef %70, double noundef %73, i32 noundef 0, ptr noundef %76)
  br label %78

78:                                               ; preds = %64, %52
  br label %79

79:                                               ; preds = %78, %34
  %80 = load ptr, ptr %8, align 8, !tbaa !50
  %81 = getelementptr inbounds nuw %struct.ARKodeRootMemRec, ptr %80, i32 0, i32 0
  %82 = load ptr, ptr %81, align 8, !tbaa !31
  %83 = load ptr, ptr %8, align 8, !tbaa !50
  %84 = getelementptr inbounds nuw %struct.ARKodeRootMemRec, ptr %83, i32 0, i32 5
  %85 = load double, ptr %84, align 8, !tbaa !45
  %86 = load ptr, ptr %7, align 8, !tbaa !9
  %87 = getelementptr inbounds nuw %struct.ARKodeMemRec, ptr %86, i32 0, i32 75
  %88 = load ptr, ptr %87, align 8, !tbaa !57
  %89 = load ptr, ptr %8, align 8, !tbaa !50
  %90 = getelementptr inbounds nuw %struct.ARKodeRootMemRec, ptr %89, i32 0, i32 8
  %91 = load ptr, ptr %90, align 8, !tbaa !27
  %92 = load ptr, ptr %8, align 8, !tbaa !50
  %93 = getelementptr inbounds nuw %struct.ARKodeRootMemRec, ptr %92, i32 0, i32 17
  %94 = load ptr, ptr %93, align 8, !tbaa !37
  %95 = call i32 %82(double noundef %85, ptr noundef %88, ptr noundef %91, ptr noundef %94)
  store i32 %95, ptr %5, align 4, !tbaa !7
  %96 = load ptr, ptr %8, align 8, !tbaa !50
  %97 = getelementptr inbounds nuw %struct.ARKodeRootMemRec, ptr %96, i32 0, i32 14
  %98 = load i64, ptr %97, align 8, !tbaa !42
  %99 = add nsw i64 %98, 1
  store i64 %99, ptr %97, align 8, !tbaa !42
  %100 = load i32, ptr %5, align 4, !tbaa !7
  %101 = icmp ne i32 %100, 0
  br i1 %101, label %102, label %103

102:                                              ; preds = %79
  store i32 -12, ptr %2, align 4
  store i32 1, ptr %9, align 4
  br label %203

103:                                              ; preds = %79
  %104 = load ptr, ptr %7, align 8, !tbaa !9
  %105 = getelementptr inbounds nuw %struct.ARKodeMemRec, ptr %104, i32 0, i32 98
  %106 = load double, ptr %105, align 8, !tbaa !51
  %107 = call double @llvm.fabs.f64(double %106)
  %108 = load ptr, ptr %7, align 8, !tbaa !9
  %109 = getelementptr inbounds nuw %struct.ARKodeMemRec, ptr %108, i32 0, i32 92
  %110 = load double, ptr %109, align 8, !tbaa !52
  %111 = call double @llvm.fabs.f64(double %110)
  %112 = fadd double %107, %111
  %113 = load ptr, ptr %7, align 8, !tbaa !9
  %114 = getelementptr inbounds nuw %struct.ARKodeMemRec, ptr %113, i32 0, i32 1
  %115 = load double, ptr %114, align 8, !tbaa !53
  %116 = fmul double %112, %115
  %117 = fmul double %116, 1.000000e+02
  %118 = load ptr, ptr %8, align 8, !tbaa !50
  %119 = getelementptr inbounds nuw %struct.ARKodeRootMemRec, ptr %118, i32 0, i32 11
  store double %117, ptr %119, align 8, !tbaa !49
  %120 = load ptr, ptr %7, align 8, !tbaa !9
  %121 = call i32 @arkRootfind(ptr noundef %120)
  store i32 %121, ptr %6, align 4, !tbaa !7
  %122 = load i32, ptr %6, align 4, !tbaa !7
  %123 = icmp eq i32 %122, -12
  br i1 %123, label %124, label %125

124:                                              ; preds = %103
  store i32 -12, ptr %2, align 4
  store i32 1, ptr %9, align 4
  br label %203

125:                                              ; preds = %103
  store i32 0, ptr %4, align 4, !tbaa !7
  br label %126

126:                                              ; preds = %158, %125
  %127 = load i32, ptr %4, align 4, !tbaa !7
  %128 = load ptr, ptr %8, align 8, !tbaa !50
  %129 = getelementptr inbounds nuw %struct.ARKodeRootMemRec, ptr %128, i32 0, i32 1
  %130 = load i32, ptr %129, align 8, !tbaa !32
  %131 = icmp slt i32 %127, %130
  br i1 %131, label %132, label %161

132:                                              ; preds = %126
  %133 = load ptr, ptr %8, align 8, !tbaa !50
  %134 = getelementptr inbounds nuw %struct.ARKodeRootMemRec, ptr %133, i32 0, i32 15
  %135 = load ptr, ptr %134, align 8, !tbaa !34
  %136 = load i32, ptr %4, align 4, !tbaa !7
  %137 = sext i32 %136 to i64
  %138 = getelementptr inbounds i32, ptr %135, i64 %137
  %139 = load i32, ptr %138, align 4, !tbaa !7
  %140 = icmp ne i32 %139, 0
  br i1 %140, label %157, label %141

141:                                              ; preds = %132
  %142 = load ptr, ptr %8, align 8, !tbaa !50
  %143 = getelementptr inbounds nuw %struct.ARKodeRootMemRec, ptr %142, i32 0, i32 9
  %144 = load ptr, ptr %143, align 8, !tbaa !28
  %145 = load i32, ptr %4, align 4, !tbaa !7
  %146 = sext i32 %145 to i64
  %147 = getelementptr inbounds double, ptr %144, i64 %146
  %148 = load double, ptr %147, align 8, !tbaa !47
  %149 = fcmp une double %148, 0.000000e+00
  br i1 %149, label %150, label %157

150:                                              ; preds = %141
  %151 = load ptr, ptr %8, align 8, !tbaa !50
  %152 = getelementptr inbounds nuw %struct.ARKodeRootMemRec, ptr %151, i32 0, i32 15
  %153 = load ptr, ptr %152, align 8, !tbaa !34
  %154 = load i32, ptr %4, align 4, !tbaa !7
  %155 = sext i32 %154 to i64
  %156 = getelementptr inbounds i32, ptr %153, i64 %155
  store i32 1, ptr %156, align 4, !tbaa !7
  br label %157

157:                                              ; preds = %150, %141, %132
  br label %158

158:                                              ; preds = %157
  %159 = load i32, ptr %4, align 4, !tbaa !7
  %160 = add nsw i32 %159, 1
  store i32 %160, ptr %4, align 4, !tbaa !7
  br label %126

161:                                              ; preds = %126
  %162 = load ptr, ptr %8, align 8, !tbaa !50
  %163 = getelementptr inbounds nuw %struct.ARKodeRootMemRec, ptr %162, i32 0, i32 6
  %164 = load double, ptr %163, align 8, !tbaa !46
  %165 = load ptr, ptr %8, align 8, !tbaa !50
  %166 = getelementptr inbounds nuw %struct.ARKodeRootMemRec, ptr %165, i32 0, i32 4
  store double %164, ptr %166, align 8, !tbaa !44
  store i32 0, ptr %4, align 4, !tbaa !7
  br label %167

167:                                              ; preds = %187, %161
  %168 = load i32, ptr %4, align 4, !tbaa !7
  %169 = load ptr, ptr %8, align 8, !tbaa !50
  %170 = getelementptr inbounds nuw %struct.ARKodeRootMemRec, ptr %169, i32 0, i32 1
  %171 = load i32, ptr %170, align 8, !tbaa !32
  %172 = icmp slt i32 %168, %171
  br i1 %172, label %173, label %190

173:                                              ; preds = %167
  %174 = load ptr, ptr %8, align 8, !tbaa !50
  %175 = getelementptr inbounds nuw %struct.ARKodeRootMemRec, ptr %174, i32 0, i32 9
  %176 = load ptr, ptr %175, align 8, !tbaa !28
  %177 = load i32, ptr %4, align 4, !tbaa !7
  %178 = sext i32 %177 to i64
  %179 = getelementptr inbounds double, ptr %176, i64 %178
  %180 = load double, ptr %179, align 8, !tbaa !47
  %181 = load ptr, ptr %8, align 8, !tbaa !50
  %182 = getelementptr inbounds nuw %struct.ARKodeRootMemRec, ptr %181, i32 0, i32 7
  %183 = load ptr, ptr %182, align 8, !tbaa !23
  %184 = load i32, ptr %4, align 4, !tbaa !7
  %185 = sext i32 %184 to i64
  %186 = getelementptr inbounds double, ptr %183, i64 %185
  store double %180, ptr %186, align 8, !tbaa !47
  br label %187

187:                                              ; preds = %173
  %188 = load i32, ptr %4, align 4, !tbaa !7
  %189 = add nsw i32 %188, 1
  store i32 %189, ptr %4, align 4, !tbaa !7
  br label %167

190:                                              ; preds = %167
  %191 = load i32, ptr %6, align 4, !tbaa !7
  %192 = icmp eq i32 %191, 0
  br i1 %192, label %193, label %194

193:                                              ; preds = %190
  store i32 0, ptr %2, align 4
  store i32 1, ptr %9, align 4
  br label %203

194:                                              ; preds = %190
  %195 = load ptr, ptr %7, align 8, !tbaa !9
  %196 = load ptr, ptr %8, align 8, !tbaa !50
  %197 = getelementptr inbounds nuw %struct.ARKodeRootMemRec, ptr %196, i32 0, i32 6
  %198 = load double, ptr %197, align 8, !tbaa !46
  %199 = load ptr, ptr %7, align 8, !tbaa !9
  %200 = getelementptr inbounds nuw %struct.ARKodeMemRec, ptr %199, i32 0, i32 75
  %201 = load ptr, ptr %200, align 8, !tbaa !57
  %202 = call i32 @ARKodeGetDky(ptr noundef %195, double noundef %198, i32 noundef 0, ptr noundef %201)
  store i32 1, ptr %2, align 4
  store i32 1, ptr %9, align 4
  br label %203

203:                                              ; preds = %194, %193, %124, %102, %12
  call void @llvm.lifetime.end.p0(i64 8, ptr %8) #6
  call void @llvm.lifetime.end.p0(i64 8, ptr %7) #6
  call void @llvm.lifetime.end.p0(i64 4, ptr %6) #6
  call void @llvm.lifetime.end.p0(i64 4, ptr %5) #6
  call void @llvm.lifetime.end.p0(i64 4, ptr %4) #6
  %204 = load i32, ptr %2, align 4
  ret i32 %204
}