; Function Attrs: nounwind uwtable
define range(i32 -21, 2) i32 @arkRootCheck3(ptr noundef %0) local_unnamed_addr #0 {
  %2 = icmp eq ptr %0, null
  br i1 %2, label %3, label %4

3:                                                ; preds = %1
  tail call void (ptr, i32, i32, ptr, ptr, ptr, ...) @arkProcessError(ptr noundef null, i32 noundef -21, i32 noundef 623, ptr noundef nonnull @__func__.arkRootCheck3, ptr noundef nonnull @.str, ptr noundef nonnull @.str.1) #8
  br label %111

4:                                                ; preds = %1
  %5 = getelementptr inbounds nuw i8, ptr %0, i64 984
  %6 = load ptr, ptr %5, align 8, !tbaa !18
  %7 = getelementptr inbounds nuw i8, ptr %6, i64 96
  %8 = load i32, ptr %7, align 8, !tbaa !38
  %9 = icmp eq i32 %8, 2
  br i1 %9, label %10, label %18

10:                                               ; preds = %4
  %11 = getelementptr inbounds nuw i8, ptr %0, i64 752
  %12 = load double, ptr %11, align 8, !tbaa !45
  %13 = getelementptr inbounds nuw i8, ptr %6, i64 40
  store double %12, ptr %13, align 8, !tbaa !40
  %14 = getelementptr inbounds nuw i8, ptr %0, i64 592
  %15 = load ptr, ptr %14, align 8, !tbaa !17
  %16 = getelementptr inbounds nuw i8, ptr %0, i64 584
  %17 = load ptr, ptr %16, align 8, !tbaa !51
  tail call void @N_VScale(double noundef 1.000000e+00, ptr noundef %15, ptr noundef %17) #8
  %.pr = load i32, ptr %7, align 8, !tbaa !38
  br label %18

18:                                               ; preds = %10, %4
  %19 = phi i32 [ %.pr, %10 ], [ %8, %4 ]
  %20 = icmp eq i32 %19, 1
  br i1 %20, label %21, label %41

21:                                               ; preds = %18
  %22 = getelementptr inbounds nuw i8, ptr %6, i64 80
  %23 = load double, ptr %22, align 8, !tbaa !43
  %24 = getelementptr inbounds nuw i8, ptr %0, i64 752
  %25 = load double, ptr %24, align 8, !tbaa !45
  %26 = fsub double %23, %25
  %27 = getelementptr inbounds nuw i8, ptr %0, i64 704
  %28 = load double, ptr %27, align 8, !tbaa !46
  %29 = fmul double %26, %28
  %30 = fcmp ult double %29, 0.000000e+00
  %31 = getelementptr inbounds nuw i8, ptr %6, i64 40
  br i1 %30, label %37, label %32

32:                                               ; preds = %21
  store double %25, ptr %31, align 8, !tbaa !40
  %33 = getelementptr inbounds nuw i8, ptr %0, i64 592
  %34 = load ptr, ptr %33, align 8, !tbaa !17
  %35 = getelementptr inbounds nuw i8, ptr %0, i64 584
  %36 = load ptr, ptr %35, align 8, !tbaa !51
  tail call void @N_VScale(double noundef 1.000000e+00, ptr noundef %34, ptr noundef %36) #8
  br label %41

37:                                               ; preds = %21
  store double %23, ptr %31, align 8, !tbaa !40
  %38 = getelementptr inbounds nuw i8, ptr %0, i64 584
  %39 = load ptr, ptr %38, align 8, !tbaa !51
  %40 = tail call i32 @ARKodeGetDky(ptr noundef nonnull %0, double noundef %23, i32 noundef 0, ptr noundef %39) #8
  br label %41

41:                                               ; preds = %32, %37, %18
  %42 = load ptr, ptr %6, align 8, !tbaa !19
  %43 = getelementptr inbounds nuw i8, ptr %6, i64 40
  %44 = load double, ptr %43, align 8, !tbaa !40
  %45 = getelementptr inbounds nuw i8, ptr %0, i64 584
  %46 = load ptr, ptr %45, align 8, !tbaa !51
  %47 = getelementptr inbounds nuw i8, ptr %6, i64 64
  %48 = load ptr, ptr %47, align 8, !tbaa !32
  %49 = getelementptr inbounds nuw i8, ptr %6, i64 128
  %50 = load ptr, ptr %49, align 8, !tbaa !28
  %51 = tail call i32 %42(double noundef %44, ptr noundef %46, ptr noundef %48, ptr noundef %50) #8
  %52 = getelementptr inbounds nuw i8, ptr %6, i64 104
  %53 = load i64, ptr %52, align 8, !tbaa !37
  %54 = add nsw i64 %53, 1
  store i64 %54, ptr %52, align 8, !tbaa !37
  %.not = icmp eq i32 %51, 0
  br i1 %.not, label %55, label %111

55:                                               ; preds = %41
  %56 = getelementptr inbounds nuw i8, ptr %0, i64 752
  %57 = load double, ptr %56, align 8, !tbaa !45
  %58 = tail call double @llvm.fabs.f64(double %57)
  %59 = getelementptr inbounds nuw i8, ptr %0, i64 704
  %60 = load double, ptr %59, align 8, !tbaa !46
  %61 = tail call double @llvm.fabs.f64(double %60)
  %62 = fadd double %58, %61
  %63 = getelementptr inbounds nuw i8, ptr %0, i64 8
  %64 = load double, ptr %63, align 8, !tbaa !47
  %65 = fmul double %64, %62
  %66 = fmul double %65, 1.000000e+02
  %67 = getelementptr inbounds nuw i8, ptr %6, i64 88
  store double %66, ptr %67, align 8, !tbaa !44
  %68 = tail call i32 @arkRootfind(ptr noundef nonnull %0)
  %69 = icmp eq i32 %68, -12
  br i1 %69, label %111, label %.preheader

.preheader:                                       ; preds = %55
  %70 = getelementptr inbounds nuw i8, ptr %6, i64 8
  %71 = load i32, ptr %70, align 8, !tbaa !23
  %72 = icmp sgt i32 %71, 0
  br i1 %72, label %.lr.ph, label %._crit_edge.thread

._crit_edge.thread:                               ; preds = %.preheader
  %73 = getelementptr inbounds nuw i8, ptr %6, i64 48
  %74 = load double, ptr %73, align 8, !tbaa !41
  %75 = getelementptr inbounds nuw i8, ptr %6, i64 32
  store double %74, ptr %75, align 8, !tbaa !39
  br label %._crit_edge64

.lr.ph:                                           ; preds = %.preheader
  %76 = getelementptr inbounds nuw i8, ptr %6, i64 112
  %77 = load ptr, ptr %76, align 8, !tbaa !25
  %78 = getelementptr inbounds nuw i8, ptr %6, i64 72
  br label %79

79:                                               ; preds = %.lr.ph, %89
  %80 = phi i32 [ %71, %.lr.ph ], [ %90, %89 ]
  %indvars.iv = phi i64 [ 0, %.lr.ph ], [ %indvars.iv.next, %89 ]
  %81 = getelementptr inbounds nuw i32, ptr %77, i64 %indvars.iv
  %82 = load i32, ptr %81, align 4, !tbaa !36
  %.not59 = icmp eq i32 %82, 0
  br i1 %.not59, label %83, label %89

83:                                               ; preds = %79
  %84 = load ptr, ptr %78, align 8, !tbaa !33
  %85 = getelementptr inbounds nuw double, ptr %84, i64 %indvars.iv
  %86 = load double, ptr %85, align 8, !tbaa !42
  %87 = fcmp une double %86, 0.000000e+00
  br i1 %87, label %88, label %89

88:                                               ; preds = %83
  store i32 1, ptr %81, align 4, !tbaa !36
  %.pre = load i32, ptr %70, align 8, !tbaa !23
  br label %89

89:                                               ; preds = %79, %83, %88
  %90 = phi i32 [ %80, %79 ], [ %80, %83 ], [ %.pre, %88 ]
  %indvars.iv.next = add nuw nsw i64 %indvars.iv, 1
  %91 = sext i32 %90 to i64
  %92 = icmp slt i64 %indvars.iv.next, %91
  br i1 %92, label %79, label %._crit_edge

._crit_edge:                                      ; preds = %89
  %93 = getelementptr inbounds nuw i8, ptr %6, i64 48
  %94 = load double, ptr %93, align 8, !tbaa !41
  %95 = getelementptr inbounds nuw i8, ptr %6, i64 32
  store double %94, ptr %95, align 8, !tbaa !39
  %96 = icmp sgt i32 %90, 0
  br i1 %96, label %.lr.ph63, label %._crit_edge64

.lr.ph63:                                         ; preds = %._crit_edge
  %97 = getelementptr inbounds nuw i8, ptr %6, i64 72
  %98 = load ptr, ptr %97, align 8, !tbaa !33
  %99 = getelementptr inbounds nuw i8, ptr %6, i64 56
  %100 = load ptr, ptr %99, align 8, !tbaa !31
  %wide.trip.count = zext nneg i32 %90 to i64
  br label %101

101:                                              ; preds = %.lr.ph63, %101
  %indvars.iv67 = phi i64 [ 0, %.lr.ph63 ], [ %indvars.iv.next68, %101 ]
  %102 = getelementptr inbounds nuw double, ptr %98, i64 %indvars.iv67
  %103 = load double, ptr %102, align 8, !tbaa !42
  %104 = getelementptr inbounds nuw double, ptr %100, i64 %indvars.iv67
  store double %103, ptr %104, align 8, !tbaa !42
  %indvars.iv.next68 = add nuw nsw i64 %indvars.iv67, 1
  %exitcond.not = icmp eq i64 %indvars.iv.next68, %wide.trip.count
  br i1 %exitcond.not, label %._crit_edge64, label %101

._crit_edge64:                                    ; preds = %101, %._crit_edge.thread, %._crit_edge
  %105 = phi ptr [ %73, %._crit_edge.thread ], [ %93, %._crit_edge ], [ %93, %101 ]
  %106 = icmp eq i32 %68, 0
  br i1 %106, label %111, label %107

107:                                              ; preds = %._crit_edge64
  %108 = load double, ptr %105, align 8, !tbaa !41
  %109 = load ptr, ptr %45, align 8, !tbaa !51
  %110 = tail call i32 @ARKodeGetDky(ptr noundef nonnull %0, double noundef %108, i32 noundef 0, ptr noundef %109) #8
  br label %111

111:                                              ; preds = %._crit_edge64, %55, %41, %107, %3
  %.0 = phi i32 [ -21, %3 ], [ 1, %107 ], [ -12, %41 ], [ -12, %55 ], [ 0, %._crit_edge64 ]
  ret i32 %.0
}